; Function Attrs: mustprogress nofree norecurse nosync nounwind willreturn memory(argmem: readwrite) uwtable
define internal noundef zeroext i1 @"_ZNSt17_Function_handlerIFbN4cvc58internal12NodeTemplateILb0EEEEZNS1_13preprocessing6passes12_GLOBAL__N_117intToBVMakeBinaryES3_RSt13unordered_mapINS2_ILb1EEES9_St4hashIS9_ESt8equal_toIS9_ESaISt4pairIKS9_S9_EEEE3$_0E10_M_managerERSt9_Any_dataRKSM_St18_Manager_operation"(ptr nocapture noundef nonnull writeonly align 8 dereferenceable(16) %__dest, ptr noundef nonnull align 8 dereferenceable(16) %__source, i32 noundef %__op) #8 align 2 personality ptr @__gxx_personality_v0 {
entry:
  switch i32 %__op, label %sw.epilog [
    i32 0, label %sw.bb
    i32 1, label %sw.bb1
    i32 2, label %sw.bb4.i
  ]

sw.bb:                                            ; preds = %entry
  store ptr @"_ZTIZN4cvc58internal13preprocessing6passes12_GLOBAL__N_117intToBVMakeBinaryENS0_12NodeTemplateILb0EEERSt13unordered_mapINS4_ILb1EEES7_St4hashIS7_ESt8equal_toIS7_ESaISt4pairIKS7_S7_EEEE3$_0", ptr %__dest, align 8
  br label %sw.epilog

sw.bb1:                                           ; preds = %entry
  store ptr %__source, ptr %__dest, align 8
  br label %sw.epilog

sw.bb4.i:                                         ; preds = %entry
  %call5.val.i = load i64, ptr %__source, align 8
  store i64 %call5.val.i, ptr %__dest, align 8
  br label %sw.epilog

sw.epilog:                                        ; preds = %entry, %sw.bb4.i, %sw.bb1, %sw.bb
  ret i1 false
}